; Function Attrs: mustprogress uwtable
define hidden void @_ZNK2cv8tracking4impl14TrackerKCFImpl12calcResponseENS_3MatES3_RS3_S4_(ptr nonnull readnone align 8 captures(none) %0, ptr noundef %1, ptr noundef %2, ptr noundef nonnull align 8 dereferenceable(96) %3, ptr noundef nonnull align 8 dereferenceable(96) %4) local_unnamed_addr #3 align 2 personality ptr @__gxx_personality_v0 {
  %6 = alloca %"class.cv::_InputArray", align 8
  %7 = alloca %"class.cv::_OutputArray", align 8
  %8 = alloca %"class.cv::_InputArray", align 8
  %9 = alloca %"class.cv::_InputArray", align 8
  %10 = alloca %"class.cv::_OutputArray", align 8
  %11 = alloca %"class.cv::Mat", align 8
  call void @llvm.lifetime.start.p0(i64 24, ptr nonnull %8) #28
  %12 = getelementptr inbounds nuw i8, ptr %8, i64 16
  store i32 0, ptr %12, align 8, !tbaa !88
  %13 = getelementptr inbounds nuw i8, ptr %8, i64 20
  store i32 0, ptr %13, align 4, !tbaa !89
  store i32 16842752, ptr %8, align 8, !tbaa !73
  %14 = getelementptr inbounds nuw i8, ptr %8, i64 8
  store ptr %1, ptr %14, align 8, !tbaa !76
  call void @llvm.lifetime.start.p0(i64 24, ptr nonnull %9) #28
  %15 = getelementptr inbounds nuw i8, ptr %9, i64 16
  store i32 0, ptr %15, align 8, !tbaa !88
  %16 = getelementptr inbounds nuw i8, ptr %9, i64 20
  store i32 0, ptr %16, align 4, !tbaa !89
  store i32 16842752, ptr %9, align 8, !tbaa !73
  %17 = getelementptr inbounds nuw i8, ptr %9, i64 8
  store ptr %2, ptr %17, align 8, !tbaa !76
  call void @llvm.lifetime.start.p0(i64 24, ptr nonnull %10) #28
  %18 = getelementptr inbounds nuw i8, ptr %10, i64 8
  %19 = getelementptr inbounds nuw i8, ptr %10, i64 16
  store i64 0, ptr %19, align 8
  store i32 33619968, ptr %10, align 8, !tbaa !73
  store ptr %4, ptr %18, align 8, !tbaa !76
  call void @_ZN2cv12mulSpectrumsERKNS_11_InputArrayES2_RKNS_12_OutputArrayEib(ptr noundef nonnull align 8 dereferenceable(24) %8, ptr noundef nonnull align 8 dereferenceable(24) %9, ptr noundef nonnull align 8 dereferenceable(24) %10, i32 noundef 0, i1 noundef zeroext false)
  call void @llvm.lifetime.end.p0(i64 24, ptr nonnull %10) #28
  call void @llvm.lifetime.end.p0(i64 24, ptr nonnull %9) #28
  call void @llvm.lifetime.end.p0(i64 24, ptr nonnull %8) #28
  call void @_ZN2cv3MatC1ERKS0_(ptr noundef nonnull align 8 dereferenceable(96) %11, ptr noundef nonnull align 8 dereferenceable(96) %4)
  call void @llvm.lifetime.start.p0(i64 24, ptr nonnull %6) #28
  %20 = getelementptr inbounds nuw i8, ptr %6, i64 16
  store i32 0, ptr %20, align 8, !tbaa !88
  %21 = getelementptr inbounds nuw i8, ptr %6, i64 20
  store i32 0, ptr %21, align 4, !tbaa !89
  store i32 16842752, ptr %6, align 8, !tbaa !73
  %22 = getelementptr inbounds nuw i8, ptr %6, i64 8
  store ptr %11, ptr %22, align 8, !tbaa !76
  call void @llvm.lifetime.start.p0(i64 24, ptr nonnull %7) #28
  %23 = getelementptr inbounds nuw i8, ptr %7, i64 8
  %24 = getelementptr inbounds nuw i8, ptr %7, i64 16
  store i64 0, ptr %24, align 8
  store i32 33619968, ptr %7, align 8, !tbaa !73
  store ptr %3, ptr %23, align 8, !tbaa !76
  invoke void @_ZN2cv4idftERKNS_11_InputArrayERKNS_12_OutputArrayEii(ptr noundef nonnull align 8 dereferenceable(24) %6, ptr noundef nonnull align 8 dereferenceable(24) %7, i32 noundef 34, i32 noundef 0)
          to label %25 unwind label %26

25:                                               ; preds = %5
  call void @llvm.lifetime.end.p0(i64 24, ptr nonnull %7) #28
  call void @llvm.lifetime.end.p0(i64 24, ptr nonnull %6) #28
  call void @_ZN2cv3MatD1Ev(ptr noundef nonnull align 8 dereferenceable(96) %11) #28
  ret void

26:                                               ; preds = %5
  %27 = landingpad { ptr, i32 }
          cleanup
  call void @_ZN2cv3MatD1Ev(ptr noundef nonnull align 8 dereferenceable(96) %11) #28
  resume { ptr, i32 } %27
}